target datalayout = "e-m:e-p270:32:32-p271:32:32-p272:64:64-i64:64-i128:128-f80:128-n8:16:32:64-S128"
target triple = "x86_64-pc-linux-gnu"

%struct.rb_code_location_struct = type { %struct.rb_code_position_struct, %struct.rb_code_position_struct }
%struct.rb_code_position_struct = type { i32, i32 }
%struct.rb_iseq_struct = type { i64, i64, ptr, %union.anon.13 }
%union.anon.13 = type { %struct.anon.14 }
%struct.anon.14 = type { i64, i32 }
%struct.rb_iseq_constant_body = type { i32, i32, ptr, %struct.anon.16, %struct.rb_iseq_location_struct, %struct.iseq_insn_info, ptr, ptr, ptr, ptr, ptr, ptr, %struct.anon.17, i32, i32, i32, i32, i32, i32, i32, i32, i8, %union.anon.18, ptr, ptr, ptr, i64, ptr, i64, ptr, i64 }
%struct.anon.16 = type { %struct.anon, i32, i32, i32, i32, i32, i32, i32, ptr, ptr }
%struct.anon = type { i16, [2 x i8] }
%struct.rb_iseq_location_struct = type { i64, i64, i64, i32, i32, %struct.rb_code_location_struct }
%struct.iseq_insn_info = type { ptr, ptr, i32, ptr }
%struct.anon.17 = type { i64, i64, i64, i64, ptr }
%union.anon.18 = type { ptr }
%struct.rb_compile_option_struct = type { i16, i32 }
%struct.rb_ast_struct = type { ptr, %struct.rb_ast_body_struct }
%struct.rb_ast_body_struct = type { ptr, ptr, i32, i8 }
%struct.RNode = type { i64, %struct.rb_code_location_struct, i32 }

@COMPILE_OPTION_DEFAULT = internal global { i8, i8, [2 x i8], i32 } { i8 -37, i8 2, [2 x i8] zeroinitializer, i32 0 }, align 4

; Function Attrs: nounwind sspstrong uwtable
define dso_local ptr @rb_iseq_constant_body_alloc() #0 {
  %1 = alloca ptr, align 8
  call void @llvm.lifetime.start.p0(i64 8, ptr %1) #24
  %2 = call noalias nonnull ptr @ruby_xcalloc(i64 noundef 1, i64 noundef 344) #27
  store ptr %2, ptr %1, align 8, !tbaa !16
  %3 = load ptr, ptr %1, align 8, !tbaa !16
  call void @llvm.lifetime.end.p0(i64 8, ptr %1) #24
  ret ptr %3
}

; Function Attrs: inlinehint nounwind sspstrong uwtable
define internal ptr @iseq_imemo_alloc() #5 {
  %1 = call i64 @rb_imemo_new(i32 noundef 7, i64 noundef 0, i64 noundef 40)
  %2 = inttoptr i64 %1 to ptr
  ret ptr %2
}

; Function Attrs: inlinehint nounwind sspstrong willreturn memory(none) uwtable
define internal zeroext i1 @RB_NIL_P(i64 noundef %0) #7 {
  %2 = alloca i64, align 8
  store i64 %0, ptr %2, align 8, !tbaa !17
  %3 = load i64, ptr %2, align 8, !tbaa !17
  %4 = icmp eq i64 %3, 4
  ret i1 %4
}

; Function Attrs: nounwind sspstrong uwtable
define internal ptr @set_compile_option_from_ast(ptr noundef %0, ptr noundef %1) #0 {
  %3 = alloca ptr, align 8
  %4 = alloca ptr, align 8
  store ptr %0, ptr %3, align 8, !tbaa !160
  store ptr %1, ptr %4, align 8, !tbaa !163
  %5 = load ptr, ptr %4, align 8, !tbaa !163
  %6 = getelementptr inbounds nuw %struct.rb_ast_body_struct, ptr %5, i32 0, i32 3
  %7 = load i8, ptr %6, align 4
  %8 = shl i8 %7, 4
  %9 = ashr i8 %8, 6
  %10 = sext i8 %9 to i32
  %11 = icmp slt i32 %10, 0
  br i1 %11, label %12, label %13

12:                                               ; preds = %2
  br label %29

13:                                               ; preds = %2
  %14 = load ptr, ptr %4, align 8, !tbaa !163
  %15 = getelementptr inbounds nuw %struct.rb_ast_body_struct, ptr %14, i32 0, i32 3
  %16 = load i8, ptr %15, align 4
  %17 = shl i8 %16, 4
  %18 = ashr i8 %17, 6
  %19 = sext i8 %18 to i32
  %20 = icmp sgt i32 %19, 0
  %21 = zext i1 %20 to i32
  %22 = load ptr, ptr %3, align 8, !tbaa !160
  %23 = trunc i32 %21 to i16
  %24 = load i16, ptr %22, align 4
  %25 = and i16 %23, 1
  %26 = shl i16 %25, 9
  %27 = and i16 %24, -513
  %28 = or i16 %27, %26
  store i16 %28, ptr %22, align 4
  br label %29

29:                                               ; preds = %13, %12
  %30 = load ptr, ptr %4, align 8, !tbaa !163
  %31 = getelementptr inbounds nuw %struct.rb_ast_body_struct, ptr %30, i32 0, i32 3
  %32 = load i8, ptr %31, align 4
  %33 = shl i8 %32, 6
  %34 = ashr i8 %33, 6
  %35 = sext i8 %34 to i32
  %36 = icmp sge i32 %35, 0
  br i1 %36, label %37, label %51

37:                                               ; preds = %29
  %38 = load ptr, ptr %4, align 8, !tbaa !163
  %39 = getelementptr inbounds nuw %struct.rb_ast_body_struct, ptr %38, i32 0, i32 3
  %40 = load i8, ptr %39, align 4
  %41 = shl i8 %40, 6
  %42 = ashr i8 %41, 6
  %43 = sext i8 %42 to i32
  %44 = load ptr, ptr %3, align 8, !tbaa !160
  %45 = trunc i32 %43 to i16
  %46 = load i16, ptr %44, align 4
  %47 = and i16 %45, 3
  %48 = shl i16 %47, 6
  %49 = and i16 %46, -193
  %50 = or i16 %49, %48
  store i16 %50, ptr %44, align 4
  br label %51

51:                                               ; preds = %37, %29
  %52 = load ptr, ptr %3, align 8, !tbaa !160
  ret ptr %52
}

; Function Attrs: nounwind sspstrong uwtable
define internal ptr @iseq_alloc() #0 {
  %1 = alloca ptr, align 8
  call void @llvm.lifetime.start.p0(i64 8, ptr %1) #24
  %2 = call ptr @iseq_imemo_alloc()
  store ptr %2, ptr %1, align 8, !tbaa !7
  %3 = call ptr @rb_iseq_constant_body_alloc()
  %4 = load ptr, ptr %1, align 8, !tbaa !7
  %5 = getelementptr inbounds nuw %struct.rb_iseq_struct, ptr %4, i32 0, i32 2
  store ptr %3, ptr %5, align 8, !tbaa !12
  %6 = load ptr, ptr %1, align 8, !tbaa !7
  call void @llvm.lifetime.end.p0(i64 8, ptr %1) #24
  ret ptr %6
}

; Function Attrs: nounwind sspstrong uwtable
define dso_local ptr @rb_iseq_new_with_opt(i64 noundef %0, i64 noundef %1, i64 noundef %2, i64 noundef %3, i32 noundef %4, ptr noundef %5, i32 noundef %6, i32 noundef %7, ptr noundef %8, i64 noundef %9) #0 {
  %11 = alloca i64, align 8
  %12 = alloca i64, align 8
  %13 = alloca i64, align 8
  %14 = alloca i64, align 8
  %15 = alloca i32, align 4
  %16 = alloca ptr, align 8
  %17 = alloca i32, align 4
  %18 = alloca i32, align 4
  %19 = alloca ptr, align 8
  %20 = alloca i64, align 8
  %21 = alloca ptr, align 8
  %22 = alloca ptr, align 8
  %23 = alloca ptr, align 8
  %24 = alloca ptr, align 8
  %25 = alloca %struct.rb_compile_option_struct, align 4
  %26 = alloca ptr, align 8
  %27 = alloca ptr, align 8
  store i64 %0, ptr %11, align 8, !tbaa !17
  store i64 %1, ptr %12, align 8, !tbaa !17
  store i64 %2, ptr %13, align 8, !tbaa !17
  store i64 %3, ptr %14, align 8, !tbaa !17
  store i32 %4, ptr %15, align 4, !tbaa !56
  store ptr %5, ptr %16, align 8, !tbaa !7
  store i32 %6, ptr %17, align 4, !tbaa !56
  store i32 %7, ptr %18, align 4, !tbaa !56
  store ptr %8, ptr %19, align 8, !tbaa !160
  store i64 %9, ptr %20, align 8, !tbaa !17
  call void @llvm.lifetime.start.p0(i64 8, ptr %21) #24
  %28 = load i64, ptr %11, align 8, !tbaa !17
  %29 = call ptr @rb_ruby_ast_data_get(i64 noundef %28)
  store ptr %29, ptr %21, align 8, !tbaa !161
  call void @llvm.lifetime.start.p0(i64 8, ptr %22) #24
  %30 = load ptr, ptr %21, align 8, !tbaa !161
  %31 = icmp ne ptr %30, null
  br i1 %31, label %32, label %35

32:                                               ; preds = %10
  %33 = load ptr, ptr %21, align 8, !tbaa !161
  %34 = getelementptr inbounds nuw %struct.rb_ast_struct, ptr %33, i32 0, i32 1
  br label %36

35:                                               ; preds = %10
  br label %36

36:                                               ; preds = %35, %32
  %37 = phi ptr [ %34, %32 ], [ null, %35 ]
  store ptr %37, ptr %22, align 8, !tbaa !163
  call void @llvm.lifetime.start.p0(i64 8, ptr %23) #24
  %38 = load ptr, ptr %22, align 8, !tbaa !163
  %39 = icmp ne ptr %38, null
  br i1 %39, label %40, label %44

40:                                               ; preds = %36
  %41 = load ptr, ptr %22, align 8, !tbaa !163
  %42 = getelementptr inbounds nuw %struct.rb_ast_body_struct, ptr %41, i32 0, i32 0
  %43 = load ptr, ptr %42, align 8, !tbaa !165
  br label %45

44:                                               ; preds = %36
  br label %45

45:                                               ; preds = %44, %40
  %46 = phi ptr [ %43, %40 ], [ null, %44 ]
  store ptr %46, ptr %23, align 8, !tbaa !168
  call void @llvm.lifetime.start.p0(i64 8, ptr %24) #24
  %47 = call ptr @iseq_alloc()
  store ptr %47, ptr %24, align 8, !tbaa !7
  call void @llvm.lifetime.start.p0(i64 8, ptr %25) #24
  %48 = load ptr, ptr %19, align 8, !tbaa !160
  %49 = icmp ne ptr %48, null
  br i1 %49, label %51, label %50

50:                                               ; preds = %45
  store ptr @COMPILE_OPTION_DEFAULT, ptr %19, align 8, !tbaa !160
  br label %51

51:                                               ; preds = %50, %45
  %52 = load ptr, ptr %22, align 8, !tbaa !163
  %53 = icmp ne ptr %52, null
  br i1 %53, label %54, label %58

54:                                               ; preds = %51
  %55 = load ptr, ptr %19, align 8, !tbaa !160
  call void @llvm.memcpy.p0.p0.i64(ptr align 4 %25, ptr align 4 %55, i64 8, i1 false), !tbaa.struct !169
  %56 = load ptr, ptr %22, align 8, !tbaa !163
  %57 = call ptr @set_compile_option_from_ast(ptr noundef %25, ptr noundef %56)
  store ptr %57, ptr %19, align 8, !tbaa !160
  br label %58

58:                                               ; preds = %54, %51
  %59 = load i64, ptr %20, align 8, !tbaa !17
  %60 = call zeroext i1 @RB_NIL_P(i64 noundef %59) #28
  br i1 %60, label %62, label %61

61:                                               ; preds = %58
  br label %87

62:                                               ; preds = %58
  %63 = load ptr, ptr %22, align 8, !tbaa !163
  %64 = icmp ne ptr %63, null
  br i1 %64, label %65, label %75

65:                                               ; preds = %62
  %66 = load ptr, ptr %22, align 8, !tbaa !163
  %67 = getelementptr inbounds nuw %struct.rb_ast_body_struct, ptr %66, i32 0, i32 1
  %68 = load ptr, ptr %67, align 8, !tbaa !170
  %69 = icmp ne ptr %68, null
  br i1 %69, label %70, label %75

70:                                               ; preds = %65
  %71 = load ptr, ptr %22, align 8, !tbaa !163
  %72 = getelementptr inbounds nuw %struct.rb_ast_body_struct, ptr %71, i32 0, i32 1
  %73 = load ptr, ptr %72, align 8, !tbaa !170
  %74 = call i64 @rb_parser_build_script_lines_from(ptr noundef %73)
  store i64 %74, ptr %20, align 8, !tbaa !17
  br label %86

75:                                               ; preds = %65, %62
  %76 = load ptr, ptr %16, align 8, !tbaa !7
  %77 = icmp ne ptr %76, null
  br i1 %77, label %78, label %85

78:                                               ; preds = %75
  %79 = load ptr, ptr %16, align 8, !tbaa !7
  %80 = getelementptr inbounds nuw %struct.rb_iseq_struct, ptr %79, i32 0, i32 2
  %81 = load ptr, ptr %80, align 8, !tbaa !12
  %82 = getelementptr inbounds nuw %struct.rb_iseq_constant_body, ptr %81, i32 0, i32 12
  %83 = getelementptr inbounds nuw %struct.anon.17, ptr %82, i32 0, i32 1
  %84 = load i64, ptr %83, align 8, !tbaa !171
  store i64 %84, ptr %20, align 8, !tbaa !17
  br label %85

85:                                               ; preds = %78, %75
  br label %86

86:                                               ; preds = %85, %70
  br label %87

87:                                               ; preds = %86, %61
  %88 = load ptr, ptr %24, align 8, !tbaa !7
  %89 = load i64, ptr %12, align 8, !tbaa !17
  %90 = load i64, ptr %13, align 8, !tbaa !17
  %91 = load i64, ptr %14, align 8, !tbaa !17
  %92 = load i32, ptr %15, align 4, !tbaa !56
  %93 = load ptr, ptr %23, align 8, !tbaa !168
  %94 = icmp ne ptr %93, null
  br i1 %94, label %95, label %98

95:                                               ; preds = %87
  %96 = load ptr, ptr %23, align 8, !tbaa !168
  %97 = getelementptr inbounds nuw %struct.RNode, ptr %96, i32 0, i32 1
  br label %99

98:                                               ; preds = %87
  br label %99

99:                                               ; preds = %98, %95
  %100 = phi ptr [ %97, %95 ], [ null, %98 ]
  %101 = load ptr, ptr %23, align 8, !tbaa !168
  %102 = icmp ne ptr %101, null
  br i1 %102, label %103, label %107

103:                                              ; preds = %99
  %104 = load ptr, ptr %23, align 8, !tbaa !168
  %105 = getelementptr inbounds nuw %struct.RNode, ptr %104, i32 0, i32 2
  %106 = load i32, ptr %105, align 8, !tbaa !172
  br label %108

107:                                              ; preds = %99
  br label %108

108:                                              ; preds = %107, %103
  %109 = phi i32 [ %106, %103 ], [ -1, %107 ]
  %110 = load ptr, ptr %16, align 8, !tbaa !7
  %111 = load i32, ptr %17, align 4, !tbaa !56
  %112 = load i32, ptr %18, align 4, !tbaa !56
  %113 = load i64, ptr %20, align 8, !tbaa !17
  %114 = load ptr, ptr %19, align 8, !tbaa !160
  %115 = call i64 @prepare_iseq_build(ptr noundef %88, i64 noundef %89, i64 noundef %90, i64 noundef %91, i32 noundef %92, ptr noundef %100, i32 noundef %109, ptr noundef %110, i32 noundef %111, i32 noundef %112, i64 noundef %113, ptr noundef %114)
  %116 = load ptr, ptr %24, align 8, !tbaa !7
  %117 = load ptr, ptr %23, align 8, !tbaa !168
  %118 = call i64 @rb_iseq_compile_node(ptr noundef %116, ptr noundef %117)
  %119 = load ptr, ptr %24, align 8, !tbaa !7
  %120 = call i64 @finish_iseq_build(ptr noundef %119)
  call void @llvm.lifetime.start.p0(i64 8, ptr %26) #24
  store ptr %11, ptr %26, align 8, !tbaa !66
  call void asm sideeffect "", "*m,~{dirflag},~{fpsr},~{flags}"(ptr elementtype(ptr) %26) #24, !srcloc !174
  %121 = load ptr, ptr %26, align 8, !tbaa !66
  store ptr %121, ptr %27, align 8, !tbaa !66
  call void @llvm.lifetime.end.p0(i64 8, ptr %26) #24
  %122 = load ptr, ptr %27, align 8, !tbaa !66
  %123 = load volatile i64, ptr %122, align 8, !tbaa !17
  %124 = load ptr, ptr %24, align 8, !tbaa !7
  %125 = call ptr @iseq_translate(ptr noundef %124)
  call void @llvm.lifetime.end.p0(i64 8, ptr %25) #24
  call void @llvm.lifetime.end.p0(i64 8, ptr %24) #24
  call void @llvm.lifetime.end.p0(i64 8, ptr %23) #24
  call void @llvm.lifetime.end.p0(i64 8, ptr %22) #24
  call void @llvm.lifetime.end.p0(i64 8, ptr %21) #24
  ret ptr %125
}