; Function Attrs: nounwind sspstrong uwtable
define dso_local ptr @rb_iseq_new_with_opt(i64 noundef %0, i64 noundef %1, i64 noundef %2, i64 noundef %3, i32 noundef %4, ptr noundef %5, i32 noundef %6, i32 noundef %7, ptr noundef %8, i64 noundef %9) local_unnamed_addr #0 {
  %11 = alloca i64, align 8
  %12 = alloca %struct.rb_compile_option_struct, align 8
  %13 = alloca ptr, align 8
  store i64 %0, ptr %11, align 8, !tbaa !42
  %14 = tail call ptr @rb_ruby_ast_data_get(i64 noundef %0) #20
  %.not = icmp eq ptr %14, null
  br i1 %.not, label %18, label %15

15:                                               ; preds = %10
  %16 = getelementptr inbounds nuw i8, ptr %14, i64 8
  %17 = load ptr, ptr %16, align 8, !tbaa !171
  br label %18

18:                                               ; preds = %10, %15
  %19 = phi ptr [ %17, %15 ], [ null, %10 ]
  %20 = tail call i64 @rb_imemo_new(i32 noundef 7, i64 noundef 0, i64 noundef 40) #20
  %21 = inttoptr i64 %20 to ptr
  %22 = tail call noalias noundef nonnull dereferenceable(344) ptr @ruby_xcalloc(i64 noundef 1, i64 noundef 344) #22
  %23 = getelementptr inbounds nuw i8, ptr %21, i64 16
  store ptr %22, ptr %23, align 8, !tbaa !7
  call void @llvm.lifetime.start.p0(i64 8, ptr nonnull %12) #20
  %.not36 = icmp eq ptr %8, null
  %spec.store.select = select i1 %.not36, ptr @COMPILE_OPTION_DEFAULT, ptr %8
  br i1 %.not, label %set_compile_option_from_ast.exit.thread, label %24

24:                                               ; preds = %18
  %25 = load i64, ptr %spec.store.select, align 4
  store i64 %25, ptr %12, align 8
  %26 = getelementptr inbounds nuw i8, ptr %14, i64 28
  %27 = load i8, ptr %26, align 4
  %28 = shl i8 %27, 4
  %29 = icmp slt i8 %28, 0
  %30 = trunc i64 %25 to i16
  br i1 %29, label %36, label %31

31:                                               ; preds = %24
  %32 = icmp samesign ugt i8 %28, 63
  %33 = select i1 %32, i16 512, i16 0
  %34 = and i16 %30, -513
  %35 = or disjoint i16 %34, %33
  store i16 %35, ptr %12, align 8
  br label %36

36:                                               ; preds = %31, %24
  %37 = phi i16 [ %35, %31 ], [ %30, %24 ]
  %.mask.i = and i8 %27, 2
  %38 = icmp eq i8 %.mask.i, 0
  br i1 %38, label %39, label %set_compile_option_from_ast.exit

39:                                               ; preds = %36
  %40 = shl i8 %27, 6
  %41 = zext nneg i8 %40 to i16
  %42 = and i16 %37, -193
  %43 = or disjoint i16 %42, %41
  store i16 %43, ptr %12, align 8
  br label %set_compile_option_from_ast.exit

set_compile_option_from_ast.exit:                 ; preds = %39, %36
  %44 = icmp eq i64 %9, 4
  br i1 %44, label %46, label %56

set_compile_option_from_ast.exit.thread:          ; preds = %18
  %45 = icmp eq i64 %9, 4
  br i1 %45, label %.thread, label %56

46:                                               ; preds = %set_compile_option_from_ast.exit
  %47 = getelementptr inbounds nuw i8, ptr %14, i64 16
  %48 = load ptr, ptr %47, align 8, !tbaa !174
  %.not37 = icmp eq ptr %48, null
  br i1 %.not37, label %.thread, label %49

49:                                               ; preds = %46
  %50 = tail call i64 @rb_parser_build_script_lines_from(ptr noundef nonnull %48) #20
  br label %56

.thread:                                          ; preds = %set_compile_option_from_ast.exit.thread, %46
  %.04244 = phi ptr [ %12, %46 ], [ %spec.store.select, %set_compile_option_from_ast.exit.thread ]
  %.not38 = icmp eq ptr %5, null
  br i1 %.not38, label %56, label %51

51:                                               ; preds = %.thread
  %52 = getelementptr inbounds nuw i8, ptr %5, i64 16
  %53 = load ptr, ptr %52, align 8, !tbaa !7
  %54 = getelementptr inbounds nuw i8, ptr %53, i64 200
  %55 = load i64, ptr %54, align 8, !tbaa !175
  br label %56

56:                                               ; preds = %set_compile_option_from_ast.exit.thread, %49, %51, %.thread, %set_compile_option_from_ast.exit
  %.041 = phi ptr [ %12, %49 ], [ %.04244, %51 ], [ %.04244, %.thread ], [ %12, %set_compile_option_from_ast.exit ], [ %spec.store.select, %set_compile_option_from_ast.exit.thread ]
  %.032 = phi i64 [ %50, %49 ], [ %55, %51 ], [ 4, %.thread ], [ %9, %set_compile_option_from_ast.exit ], [ %9, %set_compile_option_from_ast.exit.thread ]
  %.not39 = icmp eq ptr %19, null
  br i1 %.not39, label %61, label %57

57:                                               ; preds = %56
  %58 = getelementptr inbounds nuw i8, ptr %19, i64 8
  %59 = getelementptr inbounds nuw i8, ptr %19, i64 24
  %60 = load i32, ptr %59, align 8, !tbaa !176
  br label %61

61:                                               ; preds = %56, %57
  %62 = phi ptr [ null, %56 ], [ %58, %57 ]
  %63 = phi i32 [ -1, %56 ], [ %60, %57 ]
  call fastcc void @prepare_iseq_build(ptr noundef nonnull %21, i64 noundef %1, i64 noundef %2, i64 noundef %3, i32 noundef %4, ptr noundef %62, i32 noundef %63, ptr noundef %5, i32 noundef %6, i32 noundef %7, i64 noundef %.032, ptr noundef nonnull %.041)
  %64 = call i64 @rb_iseq_compile_node(ptr noundef nonnull %21, ptr noundef %19) #20
  call fastcc void @finish_iseq_build(ptr noundef nonnull %21)
  call void @llvm.lifetime.start.p0(i64 8, ptr nonnull %13) #20
  store ptr %11, ptr %13, align 8, !tbaa !178
  call void asm sideeffect "", "*m,~{dirflag},~{fpsr},~{flags}"(ptr nonnull elementtype(ptr) %13) #20, !srcloc !179
  %65 = load ptr, ptr %13, align 8, !tbaa !178
  call void @llvm.lifetime.end.p0(i64 8, ptr nonnull %13) #20
  %66 = load volatile i64, ptr %65, align 8, !tbaa !42
  %67 = call fastcc ptr @iseq_translate(ptr noundef nonnull %21)
  call void @llvm.lifetime.end.p0(i64 8, ptr nonnull %12) #20
  ret ptr %67
}